target datalayout = "e-m:e-p270:32:32-p271:32:32-p272:64:64-i64:64-i128:128-f80:128-n8:16:32:64-S128"
target triple = "x86_64-pc-linux-gnu"

@.str = private unnamed_addr constant [10 x i8] c"../hash.c\00", align 1
@.str.9 = private unnamed_addr constant [11 x i8] c"setenv(%s)\00", align 1
@.str.10 = private unnamed_addr constant [13 x i8] c"unsetenv(%s)\00", align 1
@ruby_single_main_ractor = external global ptr, align 8

; Function Attrs: inlinehint nounwind sspstrong uwtable
define internal zeroext i1 @rb_multi_ractor_p() #2 {
  %1 = alloca i1, align 1
  %2 = load ptr, ptr @ruby_single_main_ractor, align 8, !tbaa !171
  %3 = icmp ne ptr %2, null
  %4 = xor i1 %3, true
  %5 = xor i1 %4, true
  %6 = zext i1 %5 to i32
  %7 = sext i32 %6 to i64
  %8 = call i64 @llvm.expect.i64(i64 %7, i64 1)
  %9 = icmp ne i64 %8, 0
  br i1 %9, label %10, label %11

10:                                               ; preds = %0
  store i1 false, ptr %1, align 1
  br label %12

11:                                               ; preds = %0
  store i1 true, ptr %1, align 1
  br label %12

12:                                               ; preds = %11, %10
  %13 = load i1, ptr %1, align 1
  ret i1 %13
}

; Function Attrs: inlinehint nounwind sspstrong uwtable
define internal void @rb_vm_lock_leave(ptr noundef %0, ptr noundef %1, i32 noundef %2) #2 {
  %4 = alloca ptr, align 8
  %5 = alloca ptr, align 8
  %6 = alloca i32, align 4
  store ptr %0, ptr %4, align 8, !tbaa !95
  store ptr %1, ptr %5, align 8, !tbaa !14
  store i32 %2, ptr %6, align 4, !tbaa !16
  %7 = call zeroext i1 @rb_multi_ractor_p()
  br i1 %7, label %8, label %10

8:                                                ; preds = %3
  %9 = load ptr, ptr %4, align 8, !tbaa !95
  call void @rb_vm_lock_leave_body(ptr noundef %9)
  br label %10

10:                                               ; preds = %8, %3
  ret void
}

; Function Attrs: inlinehint nounwind sspstrong uwtable
define internal void @rb_vm_lock_enter(ptr noundef %0, ptr noundef %1, i32 noundef %2) #2 {
  %4 = alloca ptr, align 8
  %5 = alloca ptr, align 8
  %6 = alloca i32, align 4
  store ptr %0, ptr %4, align 8, !tbaa !95
  store ptr %1, ptr %5, align 8, !tbaa !14
  store i32 %2, ptr %6, align 4, !tbaa !16
  %7 = call zeroext i1 @rb_multi_ractor_p()
  br i1 %7, label %8, label %10

8:                                                ; preds = %3
  %9 = load ptr, ptr %4, align 8, !tbaa !95
  call void @rb_vm_lock_enter_body(ptr noundef %9)
  br label %10

10:                                               ; preds = %8, %3
  ret void
}

; Function Attrs: nounwind sspstrong uwtable
define dso_local void @ruby_setenv(ptr noundef nonnull %0, ptr noundef %1) #0 {
  %3 = alloca ptr, align 8
  %4 = alloca ptr, align 8
  %5 = alloca i32, align 4
  %6 = alloca i32, align 4
  %7 = alloca i32, align 4
  %8 = alloca i32, align 4
  %9 = alloca i32, align 4
  %10 = alloca i32, align 4
  store ptr %0, ptr %3, align 8, !tbaa !14
  store ptr %1, ptr %4, align 8, !tbaa !14
  %11 = load ptr, ptr %4, align 8, !tbaa !14
  %12 = icmp ne ptr %11, null
  br i1 %12, label %13, label %29

13:                                               ; preds = %2
  call void @llvm.lifetime.start.p0(i64 4, ptr %5) #28
  call void @llvm.lifetime.start.p0(i64 4, ptr %6) #28
  call void @rb_vm_lock_enter(ptr noundef %6, ptr noundef @.str, i32 noundef 5257)
  %14 = load ptr, ptr %3, align 8, !tbaa !14
  %15 = load ptr, ptr %4, align 8, !tbaa !14
  %16 = call i32 @setenv(ptr noundef %14, ptr noundef %15, i32 noundef 1) #28
  store i32 %16, ptr %5, align 4, !tbaa !16
  call void @rb_vm_lock_leave(ptr noundef %6, ptr noundef @.str, i32 noundef 5261)
  call void @llvm.lifetime.end.p0(i64 4, ptr %6) #28
  %17 = load i32, ptr %5, align 4, !tbaa !16
  %18 = icmp ne i32 %17, 0
  br i1 %18, label %19, label %28

19:                                               ; preds = %13
  br label %20

20:                                               ; preds = %19
  call void @llvm.lifetime.start.p0(i64 4, ptr %7) #28
  %21 = call ptr @rb_errno_ptr()
  %22 = load i32, ptr %21, align 4, !tbaa !16
  store i32 %22, ptr %7, align 4, !tbaa !16
  %23 = load i32, ptr %7, align 4, !tbaa !16
  %24 = load ptr, ptr %3, align 8, !tbaa !14
  %25 = call i64 (ptr, ...) @rb_sprintf(ptr noundef @.str.9, ptr noundef %24)
  call void @rb_syserr_fail_str(i32 noundef %23, i64 noundef %25) #30
  unreachable

26:                                               ; No predecessors!
  br label %27

27:                                               ; preds = %26
  br label %28

28:                                               ; preds = %27, %13
  call void @llvm.lifetime.end.p0(i64 4, ptr %5) #28
  br label %44

29:                                               ; preds = %2
  call void @llvm.lifetime.start.p0(i64 4, ptr %8) #28
  call void @llvm.lifetime.start.p0(i64 4, ptr %9) #28
  call void @rb_vm_lock_enter(ptr noundef %9, ptr noundef @.str, i32 noundef 5274)
  %30 = load ptr, ptr %3, align 8, !tbaa !14
  %31 = call i32 @unsetenv(ptr noundef %30) #28
  store i32 %31, ptr %8, align 4, !tbaa !16
  call void @rb_vm_lock_leave(ptr noundef %9, ptr noundef @.str, i32 noundef 5278)
  call void @llvm.lifetime.end.p0(i64 4, ptr %9) #28
  %32 = load i32, ptr %8, align 4, !tbaa !16
  %33 = icmp ne i32 %32, 0
  br i1 %33, label %34, label %43

34:                                               ; preds = %29
  br label %35

35:                                               ; preds = %34
  call void @llvm.lifetime.start.p0(i64 4, ptr %10) #28
  %36 = call ptr @rb_errno_ptr()
  %37 = load i32, ptr %36, align 4, !tbaa !16
  store i32 %37, ptr %10, align 4, !tbaa !16
  %38 = load i32, ptr %10, align 4, !tbaa !16
  %39 = load ptr, ptr %3, align 8, !tbaa !14
  %40 = call i64 (ptr, ...) @rb_sprintf(ptr noundef @.str.10, ptr noundef %39)
  call void @rb_syserr_fail_str(i32 noundef %38, i64 noundef %40) #30
  unreachable

41:                                               ; No predecessors!
  br label %42

42:                                               ; preds = %41
  br label %43

43:                                               ; preds = %42, %29
  call void @llvm.lifetime.end.p0(i64 4, ptr %8) #28
  br label %44

44:                                               ; preds = %43, %28
  ret void
}