; Function Attrs: nounwind sspstrong uwtable
define dso_local void @ruby_setenv(ptr noundef nonnull %0, ptr noundef %1) local_unnamed_addr #0 {
  %3 = alloca i32, align 4
  %4 = alloca i32, align 4
  %.not = icmp eq ptr %1, null
  br i1 %.not, label %15, label %5

5:                                                ; preds = %2
  call void @llvm.lifetime.start.p0(i64 4, ptr nonnull %3) #28
  %6 = load ptr, ptr @ruby_single_main_ractor, align 8, !tbaa !82
  %.not.i.i = icmp eq ptr %6, null
  br i1 %.not.i.i, label %7, label %rb_vm_lock_enter.exit

7:                                                ; preds = %5
  call void @rb_vm_lock_enter_body(ptr noundef nonnull %3) #28
  br label %rb_vm_lock_enter.exit

rb_vm_lock_enter.exit:                            ; preds = %5, %7
  %8 = call i32 @setenv(ptr noundef nonnull %0, ptr noundef nonnull %1, i32 noundef 1) #28
  %9 = load ptr, ptr @ruby_single_main_ractor, align 8, !tbaa !82
  %.not.i.i11 = icmp eq ptr %9, null
  br i1 %.not.i.i11, label %10, label %rb_vm_lock_leave.exit

10:                                               ; preds = %rb_vm_lock_enter.exit
  call void @rb_vm_lock_leave_body(ptr noundef nonnull %3) #28
  br label %rb_vm_lock_leave.exit

rb_vm_lock_leave.exit:                            ; preds = %rb_vm_lock_enter.exit, %10
  call void @llvm.lifetime.end.p0(i64 4, ptr nonnull %3) #28
  %.not10 = icmp eq i32 %8, 0
  br i1 %.not10, label %25, label %11

11:                                               ; preds = %rb_vm_lock_leave.exit
  %12 = call ptr @rb_errno_ptr() #28
  %13 = load i32, ptr %12, align 4, !tbaa !29
  %14 = call i64 (ptr, ...) @rb_sprintf(ptr noundef nonnull @.str.9, ptr noundef nonnull %0) #28
  call void @rb_syserr_fail_str(i32 noundef %13, i64 noundef %14) #30
  unreachable

15:                                               ; preds = %2
  call void @llvm.lifetime.start.p0(i64 4, ptr nonnull %4) #28
  %16 = load ptr, ptr @ruby_single_main_ractor, align 8, !tbaa !82
  %.not.i.i12 = icmp eq ptr %16, null
  br i1 %.not.i.i12, label %17, label %rb_vm_lock_enter.exit13

17:                                               ; preds = %15
  call void @rb_vm_lock_enter_body(ptr noundef nonnull %4) #28
  br label %rb_vm_lock_enter.exit13

rb_vm_lock_enter.exit13:                          ; preds = %15, %17
  %18 = call i32 @unsetenv(ptr noundef nonnull %0) #28
  %19 = load ptr, ptr @ruby_single_main_ractor, align 8, !tbaa !82
  %.not.i.i14 = icmp eq ptr %19, null
  br i1 %.not.i.i14, label %20, label %rb_vm_lock_leave.exit15

20:                                               ; preds = %rb_vm_lock_enter.exit13
  call void @rb_vm_lock_leave_body(ptr noundef nonnull %4) #28
  br label %rb_vm_lock_leave.exit15

rb_vm_lock_leave.exit15:                          ; preds = %rb_vm_lock_enter.exit13, %20
  call void @llvm.lifetime.end.p0(i64 4, ptr nonnull %4) #28
  %.not9 = icmp eq i32 %18, 0
  br i1 %.not9, label %25, label %21

21:                                               ; preds = %rb_vm_lock_leave.exit15
  %22 = call ptr @rb_errno_ptr() #28
  %23 = load i32, ptr %22, align 4, !tbaa !29
  %24 = call i64 (ptr, ...) @rb_sprintf(ptr noundef nonnull @.str.10, ptr noundef nonnull %0) #28
  call void @rb_syserr_fail_str(i32 noundef %23, i64 noundef %24) #30
  unreachable

25:                                               ; preds = %rb_vm_lock_leave.exit15, %rb_vm_lock_leave.exit
  ret void
}